target datalayout = "e-m:e-p270:32:32-p271:32:32-p272:64:64-i64:64-i128:128-f80:128-n8:16:32:64-S128"
target triple = "x86_64-pc-linux-gnu"

%struct._typeobject = type { %struct.PyVarObject, ptr, i64, i64, ptr, i64, ptr, ptr, ptr, ptr, ptr, ptr, ptr, ptr, ptr, ptr, ptr, ptr, ptr, i64, ptr, ptr, ptr, ptr, i64, ptr, ptr, ptr, ptr, ptr, ptr, ptr, ptr, ptr, i64, ptr, ptr, ptr, ptr, ptr, ptr, ptr, ptr, ptr, ptr, ptr, i32, ptr, ptr }
%struct.PyVarObject = type { %struct._object, i64 }
%struct._object = type { i64, ptr }
%"struct.nanobind::detail::type_data" = type { i32, i32, ptr, ptr, ptr, ptr, ptr, ptr, ptr, ptr, %union.anon, ptr, ptr }
%union.anon = type { %struct.anon }
%struct.anon = type { ptr, ptr }

@PyType_Type = external global %struct._typeobject, align 8

; Function Attrs: alwaysinline mustprogress nounwind uwtable
define linkonce_odr hidden noundef ptr @_ZN8nanobind6detail12nb_type_dataEP11_typeobject(ptr noundef %0) #5 comdat {
  %2 = alloca ptr, align 8
  store ptr %0, ptr %2, align 8
  %3 = load ptr, ptr %2, align 8
  %4 = getelementptr inbounds nuw i8, ptr %3, i64 888
  ret ptr %4
}

; Function Attrs: mustprogress uwtable
define internal void @_ZN8nanobind6detailL15nb_type_deallocEP7_object(ptr noundef %0) #0 {
  %2 = alloca ptr, align 8
  %3 = alloca ptr, align 8
  store ptr %0, ptr %2, align 8
  call void @llvm.lifetime.start.p0(i64 8, ptr %3) #20
  %4 = load ptr, ptr %2, align 8
  %5 = call noundef ptr @_ZN8nanobind6detail12nb_type_dataEP11_typeobject(ptr noundef %4) #20
  store ptr %5, ptr %3, align 8
  %6 = load ptr, ptr %3, align 8
  %7 = getelementptr inbounds nuw %"struct.nanobind::detail::type_data", ptr %6, i32 0, i32 3
  %8 = load ptr, ptr %7, align 8
  %9 = icmp ne ptr %8, null
  br i1 %9, label %10, label %19

10:                                               ; preds = %1
  %11 = load ptr, ptr %3, align 8
  %12 = getelementptr inbounds nuw %"struct.nanobind::detail::type_data", ptr %11, i32 0, i32 1
  %13 = load i32, ptr %12, align 4
  %14 = lshr i32 %13, 8
  %15 = and i32 %14, 256
  %16 = icmp eq i32 %15, 0
  br i1 %16, label %17, label %19

17:                                               ; preds = %10
  %18 = load ptr, ptr %3, align 8
  call void @_ZN8nanobind6detail18nb_type_unregisterEPNS0_9type_dataE(ptr noundef %18) #20
  br label %19

19:                                               ; preds = %17, %10, %1
  %20 = load ptr, ptr %3, align 8
  %21 = getelementptr inbounds nuw %"struct.nanobind::detail::type_data", ptr %20, i32 0, i32 1
  %22 = load i32, ptr %21, align 4
  %23 = lshr i32 %22, 8
  %24 = and i32 %23, 128
  %25 = icmp ne i32 %24, 0
  br i1 %25, label %26, label %35

26:                                               ; preds = %19
  %27 = load ptr, ptr %3, align 8
  %28 = getelementptr inbounds nuw %"struct.nanobind::detail::type_data", ptr %27, i32 0, i32 10
  %29 = getelementptr inbounds nuw %struct.anon, ptr %28, i32 0, i32 0
  %30 = load ptr, ptr %29, align 8
  call void @PyMem_Free(ptr noundef %30)
  %31 = load ptr, ptr %3, align 8
  %32 = getelementptr inbounds nuw %"struct.nanobind::detail::type_data", ptr %31, i32 0, i32 10
  %33 = getelementptr inbounds nuw %struct.anon, ptr %32, i32 0, i32 1
  %34 = load ptr, ptr %33, align 8
  call void @PyMem_Free(ptr noundef %34)
  br label %35

35:                                               ; preds = %26, %19
  %36 = load ptr, ptr %3, align 8
  %37 = getelementptr inbounds nuw %"struct.nanobind::detail::type_data", ptr %36, i32 0, i32 2
  %38 = load ptr, ptr %37, align 8
  call void @free(ptr noundef %38) #20
  %39 = load ptr, ptr getelementptr inbounds nuw (%struct._typeobject, ptr @PyType_Type, i32 0, i32 4), align 8
  %40 = load ptr, ptr %2, align 8
  call void %39(ptr noundef %40)
  call void @llvm.lifetime.end.p0(i64 8, ptr %3) #20
  ret void
}