; Function Attrs: mustprogress uwtable
define internal void @_ZN8nanobind6detailL15nb_type_deallocEP7_object(ptr noundef %0) #0 {
  %2 = getelementptr inbounds nuw i8, ptr %0, i64 888
  %3 = getelementptr inbounds nuw i8, ptr %0, i64 904
  %4 = load ptr, ptr %3, align 8
  %.not = icmp eq ptr %4, null
  br i1 %.not, label %11, label %5

5:                                                ; preds = %1
  %6 = getelementptr inbounds nuw i8, ptr %0, i64 892
  %7 = load i32, ptr %6, align 4
  %8 = and i32 %7, 65536
  %9 = icmp eq i32 %8, 0
  br i1 %9, label %10, label %11

10:                                               ; preds = %5
  tail call void @_ZN8nanobind6detail18nb_type_unregisterEPNS0_9type_dataE(ptr noundef nonnull %2) #29
  br label %11

11:                                               ; preds = %10, %5, %1
  %12 = getelementptr inbounds nuw i8, ptr %0, i64 892
  %13 = load i32, ptr %12, align 4
  %14 = and i32 %13, 32768
  %.not9 = icmp eq i32 %14, 0
  br i1 %.not9, label %20, label %15

15:                                               ; preds = %11
  %16 = getelementptr inbounds nuw i8, ptr %0, i64 960
  %17 = load ptr, ptr %16, align 8
  tail call void @PyMem_Free(ptr noundef %17)
  %18 = getelementptr inbounds nuw i8, ptr %0, i64 968
  %19 = load ptr, ptr %18, align 8
  tail call void @PyMem_Free(ptr noundef %19)
  br label %20

20:                                               ; preds = %15, %11
  %21 = getelementptr inbounds nuw i8, ptr %0, i64 896
  %22 = load ptr, ptr %21, align 8
  tail call void @free(ptr noundef %22) #29
  %23 = load ptr, ptr getelementptr inbounds nuw (i8, ptr @PyType_Type, i64 48), align 8
  tail call void %23(ptr noundef nonnull %0)
  ret void
}